; Function Attrs: mustprogress uwtable
define noundef zeroext i1 @_ZNK32pxrInternal_v0_24__pxrReserved__10TsKeyFrameneERKS0_(ptr noundef nonnull align 8 dereferenceable(72) %0, ptr noundef nonnull align 8 dereferenceable(72) %1) local_unnamed_addr #0 align 2 {
  %3 = icmp eq ptr %0, %1
  br i1 %3, label %_ZNK32pxrInternal_v0_24__pxrReserved__10TsKeyFrameeqERKS0_.exit, label %4

4:                                                ; preds = %2
  %5 = load ptr, ptr %0, align 8
  %6 = getelementptr inbounds i8, ptr %5, i64 48
  %7 = load ptr, ptr %6, align 8
  %8 = tail call noundef zeroext i1 %7(ptr noundef nonnull align 8 dereferenceable(16) %0, ptr noundef nonnull align 8 dereferenceable(16) %1)
  %9 = xor i1 %8, true
  br label %_ZNK32pxrInternal_v0_24__pxrReserved__10TsKeyFrameeqERKS0_.exit

_ZNK32pxrInternal_v0_24__pxrReserved__10TsKeyFrameeqERKS0_.exit: ; preds = %2, %4
  %10 = phi i1 [ false, %2 ], [ %9, %4 ]
  ret i1 %10
}